Certificate:
    Data:
        Version: 1 (0x0)
        Serial Number: 9 (0x9)
        Signature Algorithm: ecdsa-with-SHA256
        Issuer: C=FR, ST=France, L=Toulon, O=Isen, OU=Cyber, CN=ACI
        Validity
            Not Before: May  1 12:21:34 2023 GMT
            Not After : Apr 30 12:21:34 2024 GMT
        Subject: C=FR, ST=RUSSIE, L=MOSCOW, O=Isen, OU=ISEN, CN=FR/emailAddress=hgouiran@gmail.com
        Subject Public Key Info:
            Public Key Algorithm: id-ecPublicKey
                Public-Key: (256 bit)
                pub:
                    04:8d:7d:a6:50:8a:55:59:7a:80:35:5a:0d:3b:db:
                    cd:be:1e:5a:4f:c4:7a:63:0e:f4:50:65:d1:d0:12:
                    80:47:ad:de:f4:9f:83:7e:28:d1:de:d5:2b:45:55:
                    40:a3:42:66:b8:a9:0a:c6:bc:3c:ba:fd:3c:1e:69:
                    6d:9e:33:45:28
                ASN1 OID: prime256v1
                NIST CURVE: P-256
    Signature Algorithm: ecdsa-with-SHA256
    Signature Value:
        30:44:02:20:3e:9d:59:58:b8:01:51:68:0f:20:9c:53:4c:8d:
        7b:d7:76:42:f7:e4:8f:7c:59:2e:c7:eb:e2:03:ea:2e:f1:57:
        02:20:14:3c:0c:36:fc:e1:aa:84:b0:c6:98:a2:91:22:fe:07:
        e1:cd:d1:77:ac:11:7c:3f:c0:e7:17:23:12:d4:9f:41
-----BEGIN CERTIFICATE-----
MIIBwDCCAWcCAQkwCgYIKoZIzj0EAwIwXDELMAkGA1UEBhMCRlIxDzANBgNVBAgM
BkZyYW5jZTEPMA0GA1UEBwwGVG91bG9uMQ0wCwYDVQQKDARJc2VuMQ4wDAYDVQQL
DAVDeWJlcjEMMAoGA1UEAwwDQUNJMB4XDTIzMDUwMTEyMjEzNFoXDTI0MDQzMDEy
MjEzNFowfTELMAkGA1UEBhMCRlIxDzANBgNVBAgMBlJVU1NJRTEPMA0GA1UEBwwG
TU9TQ09XMQ0wCwYDVQQKDARJc2VuMQ0wCwYDVQQLDARJU0VOMQswCQYDVQQDDAJG
UjEhMB8GCSqGSIb3DQEJARYSaGdvdWlyYW5AZ21haWwuY29tMFkwEwYHKoZIzj0C
AQYIKoZIzj0DAQcDQgAEjX2mUIpVWXqANVoNO9vNvh5aT8R6Yw70UGXR0BKAR63e
9J+DfijR3tUrRVVAo0JmuKkKxrw8uv08HmltnjNFKDAKBggqhkjOPQQDAgNHADBE
AiA+nVlYuAFRaA8gnFNMjXvXdkL35I98WS7H6+ID6i7xVwIgFDwMNvzhqoSwxpii
kSL+B+HN0XesEXw/wOcXIxLUn0E=
-----END CERTIFICATE-----
