Certificate:
    Data:
        Version: 1 (0x0)
        Serial Number: 4 (0x4)
        Signature Algorithm: ecdsa-with-SHA256
        Issuer: C=FR, ST=France, L=Toulon, O=Isen, OU=Cyber, CN=ACI
        Validity
            Not Before: May  1 08:45:32 2023 GMT
            Not After : Apr 30 08:45:32 2024 GMT
        Subject: C=FR, ST=FRANCE, L=TOULON , O=Isen, OU=Isen, CN=FR/emailAddress=cryptoISEN30@gmail.com
        Subject Public Key Info:
            Public Key Algorithm: id-ecPublicKey
                Public-Key: (256 bit)
                pub:
                    04:f4:0d:3c:13:0b:ba:4e:6b:47:b6:4f:cb:fc:0d:
                    15:43:80:93:e7:4d:e3:9b:01:59:c0:c5:2c:60:cc:
                    7d:85:1a:93:ed:12:23:d0:42:d7:be:69:e3:d0:71:
                    a9:8f:5b:6c:16:04:16:a1:78:45:8d:94:0d:2c:d5:
                    06:6a:e9:37:88
                ASN1 OID: prime256v1
                NIST CURVE: P-256
    Signature Algorithm: ecdsa-with-SHA256
    Signature Value:
        30:44:02:20:31:b3:81:4e:67:99:f8:ba:05:3d:65:6c:1b:d4:
        2c:35:d5:d0:bd:e7:db:2b:97:69:45:2d:12:a0:55:17:80:6f:
        02:20:64:b9:2a:df:51:fb:a8:a6:b1:d3:4c:1a:d2:81:1d:47:
        73:8c:66:d1:da:73:85:e7:07:2a:12:6f:00:2b:e7:02
-----BEGIN CERTIFICATE-----
MIIBxjCCAW0CAQQwCgYIKoZIzj0EAwIwXDELMAkGA1UEBhMCRlIxDzANBgNVBAgM
BkZyYW5jZTEPMA0GA1UEBwwGVG91bG9uMQ0wCwYDVQQKDARJc2VuMQ4wDAYDVQQL
DAVDeWJlcjEMMAoGA1UEAwwDQUNJMB4XDTIzMDUwMTA4NDUzMloXDTI0MDQzMDA4
NDUzMlowgYIxCzAJBgNVBAYTAkZSMQ8wDQYDVQQIDAZGUkFOQ0UxEDAOBgNVBAcM
B1RPVUxPTiAxDTALBgNVBAoMBElzZW4xDTALBgNVBAsMBElzZW4xCzAJBgNVBAMM
AkZSMSUwIwYJKoZIhvcNAQkBFhZjcnlwdG9JU0VOMzBAZ21haWwuY29tMFkwEwYH
KoZIzj0CAQYIKoZIzj0DAQcDQgAE9A08Ewu6TmtHtk/L/A0VQ4CT503jmwFZwMUs
YMx9hRqT7RIj0ELXvmnj0HGpj1tsFgQWoXhFjZQNLNUGauk3iDAKBggqhkjOPQQD
AgNHADBEAiAxs4FOZ5n4ugU9ZWwb1Cw11dC959srl2lFLRKgVReAbwIgZLkq31H7
qKax00wa0oEdR3OMZtHac4XnByoSbwAr5wI=
-----END CERTIFICATE-----
