Certificate:
    Data:
        Version: 1 (0x0)
        Serial Number: 5 (0x5)
        Signature Algorithm: ecdsa-with-SHA256
        Issuer: C=FR, ST=France, L=Toulon, O=Isen, OU=Cyber, CN=ACI
        Validity
            Not Before: May  1 11:12:03 2023 GMT
            Not After : Apr 30 11:12:03 2024 GMT
        Subject: C=FR, ST=roumanie, L=dunkerker, O=Isen, OU=ISEN, CN=FR/emailAddress=hgouiran@gmail.com
        Subject Public Key Info:
            Public Key Algorithm: id-ecPublicKey
                Public-Key: (256 bit)
                pub:
                    04:9f:ae:36:98:c3:96:6a:d9:47:b0:4c:c5:db:18:
                    7c:d7:51:24:86:dc:66:62:6d:e2:21:18:fb:3e:c2:
                    59:f3:fb:f5:bc:b6:32:66:6c:cc:cb:41:4c:35:9a:
                    1e:17:09:18:b5:60:b8:c8:1d:34:bc:04:f4:d6:c6:
                    6f:20:9b:53:a5
                ASN1 OID: prime256v1
                NIST CURVE: P-256
    Signature Algorithm: ecdsa-with-SHA256
    Signature Value:
        30:45:02:21:00:d3:46:01:13:09:e0:79:55:84:7b:3b:3e:59:
        fe:cc:aa:2c:ea:e0:ff:74:d9:67:28:8a:12:a1:d4:84:07:dc:
        dd:02:20:11:0a:c8:6a:ce:e1:3f:00:8b:db:f0:25:0d:13:10:
        3c:0f:a4:99:3c:76:7e:7e:74:55:66:cf:dc:97:c8:cd:97
-----BEGIN CERTIFICATE-----
MIIBxzCCAW0CAQUwCgYIKoZIzj0EAwIwXDELMAkGA1UEBhMCRlIxDzANBgNVBAgM
BkZyYW5jZTEPMA0GA1UEBwwGVG91bG9uMQ0wCwYDVQQKDARJc2VuMQ4wDAYDVQQL
DAVDeWJlcjEMMAoGA1UEAwwDQUNJMB4XDTIzMDUwMTExMTIwM1oXDTI0MDQzMDEx
MTIwM1owgYIxCzAJBgNVBAYTAkZSMREwDwYDVQQIDAhyb3VtYW5pZTESMBAGA1UE
BwwJZHVua2Vya2VyMQ0wCwYDVQQKDARJc2VuMQ0wCwYDVQQLDARJU0VOMQswCQYD
VQQDDAJGUjEhMB8GCSqGSIb3DQEJARYSaGdvdWlyYW5AZ21haWwuY29tMFkwEwYH
KoZIzj0CAQYIKoZIzj0DAQcDQgAEn642mMOWatlHsEzF2xh811EkhtxmYm3iIRj7
PsJZ8/v1vLYyZmzMy0FMNZoeFwkYtWC4yB00vAT01sZvIJtTpTAKBggqhkjOPQQD
AgNIADBFAiEA00YBEwngeVWEezs+Wf7Mqizq4P902WcoihKh1IQH3N0CIBEKyGrO
4T8Ai9vwJQ0TEDwPpJk8dn5+dFVmz9yXyM2X
-----END CERTIFICATE-----
