Certificate:
    Data:
        Version: 1 (0x0)
        Serial Number: 8 (0x8)
        Signature Algorithm: ecdsa-with-SHA256
        Issuer: C=FR, ST=France, L=Toulon, O=Isen, OU=Cyber, CN=ACI
        Validity
            Not Before: May  1 12:19:20 2023 GMT
            Not After : Apr 30 12:19:20 2024 GMT
        Subject: C=FR, ST=England, L=London, O=Isen, OU=isen, CN=FR/emailAddress=hgouiran@gmail.com
        Subject Public Key Info:
            Public Key Algorithm: id-ecPublicKey
                Public-Key: (256 bit)
                pub:
                    04:e7:44:36:2a:54:22:0e:94:d6:56:85:1a:2d:39:
                    96:96:dd:ae:f2:fb:e6:a2:e7:10:83:16:0f:48:e9:
                    0c:71:08:8b:73:91:a3:82:0d:06:28:33:79:1c:c9:
                    cc:d6:e2:f1:2f:35:21:1d:2b:bb:6f:91:f3:ea:02:
                    48:ce:1e:c0:28
                ASN1 OID: prime256v1
                NIST CURVE: P-256
    Signature Algorithm: ecdsa-with-SHA256
    Signature Value:
        30:46:02:21:00:da:ac:7a:7b:b9:0b:7b:2d:73:ad:0b:e1:87:
        c6:4d:8a:e3:1c:5f:78:bf:10:bb:5a:d9:a0:03:22:d7:d6:5e:
        35:02:21:00:9a:ce:9a:ec:63:96:35:d8:dd:1c:8a:7a:88:ff:
        e5:c7:92:eb:b8:e6:9a:c1:0b:09:58:12:f1:88:f1:c0:99:12
-----BEGIN CERTIFICATE-----
MIIBwzCCAWgCAQgwCgYIKoZIzj0EAwIwXDELMAkGA1UEBhMCRlIxDzANBgNVBAgM
BkZyYW5jZTEPMA0GA1UEBwwGVG91bG9uMQ0wCwYDVQQKDARJc2VuMQ4wDAYDVQQL
DAVDeWJlcjEMMAoGA1UEAwwDQUNJMB4XDTIzMDUwMTEyMTkyMFoXDTI0MDQzMDEy
MTkyMFowfjELMAkGA1UEBhMCRlIxEDAOBgNVBAgMB0VuZ2xhbmQxDzANBgNVBAcM
BkxvbmRvbjENMAsGA1UECgwESXNlbjENMAsGA1UECwwEaXNlbjELMAkGA1UEAwwC
RlIxITAfBgkqhkiG9w0BCQEWEmhnb3VpcmFuQGdtYWlsLmNvbTBZMBMGByqGSM49
AgEGCCqGSM49AwEHA0IABOdENipUIg6U1laFGi05lpbdrvL75qLnEIMWD0jpDHEI
i3ORo4INBigzeRzJzNbi8S81IR0ru2+R8+oCSM4ewCgwCgYIKoZIzj0EAwIDSQAw
RgIhANqsenu5C3stc60L4YfGTYrjHF94vxC7WtmgAyLX1l41AiEAms6a7GOWNdjd
HIp6iP/lx5LruOaawQsJWBLxiPHAmRI=
-----END CERTIFICATE-----
