Certificate:
    Data:
        Version: 1 (0x0)
        Serial Number: 1 (0x1)
        Signature Algorithm: ecdsa-with-SHA256
        Issuer: C=FR, ST=France, L=Toulon, O=Isen, OU=Cyber, CN=ACI
        Validity
            Not Before: Apr 30 22:13:17 2023 GMT
            Not After : Apr 29 22:13:17 2024 GMT
        Subject: C=FR, ST=PACA, L=TOULON , O=Isen, OU=Isen, CN=FR/emailAddress=cryptoISEN30@gmail.com
        Subject Public Key Info:
            Public Key Algorithm: id-ecPublicKey
                Public-Key: (256 bit)
                pub:
                    04:28:4b:c4:8b:b9:29:5b:53:bb:5c:13:a8:ce:f2:
                    bb:d6:75:3a:5e:30:d8:47:88:d1:1b:3f:cd:6e:4f:
                    5f:78:12:33:e4:35:e6:b8:4c:66:4f:e4:22:9e:ab:
                    fe:b2:ce:96:ba:83:4c:c0:23:fa:d9:b5:17:a4:da:
                    00:ba:87:43:37
                ASN1 OID: prime256v1
                NIST CURVE: P-256
    Signature Algorithm: ecdsa-with-SHA256
    Signature Value:
        30:45:02:21:00:89:35:2a:d4:0b:16:16:bf:f5:ae:3e:2a:58:
        3c:c6:7c:a8:21:25:9e:c5:1d:0d:a5:11:90:f1:a7:d4:49:9e:
        eb:02:20:3b:e5:30:c1:09:86:d2:43:99:7d:ca:89:e5:79:7e:
        09:a0:88:99:1c:5b:0e:da:a3:90:c2:d1:6a:72:c8:dc:0c
-----BEGIN CERTIFICATE-----
MIIBxTCCAWsCAQEwCgYIKoZIzj0EAwIwXDELMAkGA1UEBhMCRlIxDzANBgNVBAgM
BkZyYW5jZTEPMA0GA1UEBwwGVG91bG9uMQ0wCwYDVQQKDARJc2VuMQ4wDAYDVQQL
DAVDeWJlcjEMMAoGA1UEAwwDQUNJMB4XDTIzMDQzMDIyMTMxN1oXDTI0MDQyOTIy
MTMxN1owgYAxCzAJBgNVBAYTAkZSMQ0wCwYDVQQIDARQQUNBMRAwDgYDVQQHDAdU
T1VMT04gMQ0wCwYDVQQKDARJc2VuMQ0wCwYDVQQLDARJc2VuMQswCQYDVQQDDAJG
UjElMCMGCSqGSIb3DQEJARYWY3J5cHRvSVNFTjMwQGdtYWlsLmNvbTBZMBMGByqG
SM49AgEGCCqGSM49AwEHA0IABChLxIu5KVtTu1wTqM7yu9Z1Ol4w2EeI0Rs/zW5P
X3gSM+Q15rhMZk/kIp6r/rLOlrqDTMAj+tm1F6TaALqHQzcwCgYIKoZIzj0EAwID
SAAwRQIhAIk1KtQLFha/9a4+Klg8xnyoISWexR0NpRGQ8afUSZ7rAiA75TDBCYbS
Q5l9yonleX4JoIiZHFsO2qOQwtFqcsjcDA==
-----END CERTIFICATE-----
