Certificate:
    Data:
        Version: 1 (0x0)
        Serial Number: 2 (0x2)
        Signature Algorithm: ecdsa-with-SHA256
        Issuer: C=FR, ST=France, L=Toulon, O=Isen, OU=Cyber, CN=ACI
        Validity
            Not Before: Apr 30 22:20:10 2023 GMT
            Not After : Apr 29 22:20:10 2024 GMT
        Subject: C=FR, ST=PACA, L=TOULON , O=Isen, OU=Isen, CN=FR/emailAddress=cryptoISEN30@gmail.com
        Subject Public Key Info:
            Public Key Algorithm: id-ecPublicKey
                Public-Key: (256 bit)
                pub:
                    04:82:19:f9:de:2d:ef:9a:02:c2:0a:93:ed:8a:d0:
                    51:fb:45:2d:0b:77:30:04:91:dd:36:47:66:c1:2e:
                    b3:d6:f3:29:33:68:db:12:8a:a1:1c:15:c5:51:07:
                    a6:c2:7a:a7:10:37:43:81:56:a7:2e:39:e4:22:9a:
                    ca:8a:4c:79:f5
                ASN1 OID: prime256v1
                NIST CURVE: P-256
    Signature Algorithm: ecdsa-with-SHA256
    Signature Value:
        30:45:02:20:1c:1d:49:ca:33:c1:d0:10:c1:99:fb:9a:cd:33:
        e5:cc:4b:32:9b:a5:fa:1a:8c:d1:8e:ed:91:f8:3d:15:53:d6:
        02:21:00:92:41:05:91:d8:8d:6e:fc:63:27:60:6c:ea:f1:10:
        6a:01:84:37:33:82:ca:9a:5f:d1:3d:d8:c4:70:c5:25:fa
-----BEGIN CERTIFICATE-----
MIIBxTCCAWsCAQIwCgYIKoZIzj0EAwIwXDELMAkGA1UEBhMCRlIxDzANBgNVBAgM
BkZyYW5jZTEPMA0GA1UEBwwGVG91bG9uMQ0wCwYDVQQKDARJc2VuMQ4wDAYDVQQL
DAVDeWJlcjEMMAoGA1UEAwwDQUNJMB4XDTIzMDQzMDIyMjAxMFoXDTI0MDQyOTIy
MjAxMFowgYAxCzAJBgNVBAYTAkZSMQ0wCwYDVQQIDARQQUNBMRAwDgYDVQQHDAdU
T1VMT04gMQ0wCwYDVQQKDARJc2VuMQ0wCwYDVQQLDARJc2VuMQswCQYDVQQDDAJG
UjElMCMGCSqGSIb3DQEJARYWY3J5cHRvSVNFTjMwQGdtYWlsLmNvbTBZMBMGByqG
SM49AgEGCCqGSM49AwEHA0IABIIZ+d4t75oCwgqT7YrQUftFLQt3MASR3TZHZsEu
s9bzKTNo2xKKoRwVxVEHpsJ6pxA3Q4FWpy455CKayopMefUwCgYIKoZIzj0EAwID
SAAwRQIgHB1JyjPB0BDBmfuazTPlzEsym6X6GozRju2R+D0VU9YCIQCSQQWR2I1u
/GMnYGzq8RBqAYQ3M4LKml/RPdjEcMUl+g==
-----END CERTIFICATE-----
