Certificate:
    Data:
        Version: 1 (0x0)
        Serial Number: 3 (0x3)
        Signature Algorithm: ecdsa-with-SHA256
        Issuer: C=FR, ST=France, L=Toulon, O=Isen, OU=Cyber, CN=ACI
        Validity
            Not Before: Apr 30 22:21:49 2023 GMT
            Not After : Apr 29 22:21:49 2024 GMT
        Subject: C=FR, ST=ItALIE, L=TOULON , O=Isen, OU=Isen, CN=FR/emailAddress=cryptoISEN30@gmail.com
        Subject Public Key Info:
            Public Key Algorithm: id-ecPublicKey
                Public-Key: (256 bit)
                pub:
                    04:c7:33:39:a6:d1:7b:43:9e:d8:f5:9e:d4:52:36:
                    87:24:f7:ac:44:a7:e0:0c:5e:e8:26:d2:72:29:22:
                    7b:0c:e2:85:ae:8d:cd:dc:93:90:b9:c4:82:cb:99:
                    d1:03:28:b6:d0:f7:d9:72:bb:05:af:9f:d1:81:07:
                    a0:e5:1c:ea:42
                ASN1 OID: prime256v1
                NIST CURVE: P-256
    Signature Algorithm: ecdsa-with-SHA256
    Signature Value:
        30:45:02:21:00:bf:68:5d:c0:01:5a:df:58:cb:e2:3b:4b:72:
        70:3b:09:50:39:5b:b3:8d:d6:69:a1:f3:b5:2b:b2:b6:c7:a4:
        66:02:20:18:4e:49:d1:d8:86:f4:e0:fd:f3:7d:b4:33:cf:12:
        7b:8d:cc:03:d7:ea:45:fd:b9:10:04:02:46:96:5e:9a:96
-----BEGIN CERTIFICATE-----
MIIBxzCCAW0CAQMwCgYIKoZIzj0EAwIwXDELMAkGA1UEBhMCRlIxDzANBgNVBAgM
BkZyYW5jZTEPMA0GA1UEBwwGVG91bG9uMQ0wCwYDVQQKDARJc2VuMQ4wDAYDVQQL
DAVDeWJlcjEMMAoGA1UEAwwDQUNJMB4XDTIzMDQzMDIyMjE0OVoXDTI0MDQyOTIy
MjE0OVowgYIxCzAJBgNVBAYTAkZSMQ8wDQYDVQQIDAZJdEFMSUUxEDAOBgNVBAcM
B1RPVUxPTiAxDTALBgNVBAoMBElzZW4xDTALBgNVBAsMBElzZW4xCzAJBgNVBAMM
AkZSMSUwIwYJKoZIhvcNAQkBFhZjcnlwdG9JU0VOMzBAZ21haWwuY29tMFkwEwYH
KoZIzj0CAQYIKoZIzj0DAQcDQgAExzM5ptF7Q57Y9Z7UUjaHJPesRKfgDF7oJtJy
KSJ7DOKFro3N3JOQucSCy5nRAyi20PfZcrsFr5/RgQeg5RzqQjAKBggqhkjOPQQD
AgNIADBFAiEAv2hdwAFa31jL4jtLcnA7CVA5W7ON1mmh87UrsrbHpGYCIBhOSdHY
hvTg/fN9tDPPEnuNzAPX6kX9uRAEAkaWXpqW
-----END CERTIFICATE-----
