Certificate:
    Data:
        Version: 1 (0x0)
        Serial Number: 7 (0x7)
        Signature Algorithm: ecdsa-with-SHA256
        Issuer: C=FR, ST=France, L=Toulon, O=Isen, OU=Cyber, CN=ACI
        Validity
            Not Before: May  1 12:15:46 2023 GMT
            Not After : Apr 30 12:15:46 2024 GMT
        Subject: C=FR, ST=iSTANBUL, L=fRIETZ, O=Isen, OU=isen, CN=FR/emailAddress=hgouiran@gmail.com
        Subject Public Key Info:
            Public Key Algorithm: id-ecPublicKey
                Public-Key: (256 bit)
                pub:
                    04:cb:15:51:ba:3c:8f:b4:4b:c7:41:3e:30:0b:3f:
                    6d:28:18:83:5e:c8:b9:14:e5:dc:c4:67:b0:34:94:
                    98:85:e0:47:63:7b:f7:18:63:68:bd:4b:07:55:20:
                    02:3f:42:41:7f:73:49:d4:af:00:32:81:73:0f:09:
                    27:b3:a8:24:69
                ASN1 OID: prime256v1
                NIST CURVE: P-256
    Signature Algorithm: ecdsa-with-SHA256
    Signature Value:
        30:44:02:20:6d:2f:25:3d:b0:ff:cb:28:26:c5:9c:99:cb:cb:
        e3:7c:82:2c:07:a1:bc:b9:36:6d:e4:fa:41:e3:4e:fe:4f:c0:
        02:20:5d:eb:7b:d6:85:88:f4:c5:73:51:54:c3:d3:b1:2c:12:
        4d:6b:b3:e5:76:c8:e8:c4:ad:22:89:5f:46:b3:90:97
-----BEGIN CERTIFICATE-----
MIIBwjCCAWkCAQcwCgYIKoZIzj0EAwIwXDELMAkGA1UEBhMCRlIxDzANBgNVBAgM
BkZyYW5jZTEPMA0GA1UEBwwGVG91bG9uMQ0wCwYDVQQKDARJc2VuMQ4wDAYDVQQL
DAVDeWJlcjEMMAoGA1UEAwwDQUNJMB4XDTIzMDUwMTEyMTU0NloXDTI0MDQzMDEy
MTU0NlowfzELMAkGA1UEBhMCRlIxETAPBgNVBAgMCGlTVEFOQlVMMQ8wDQYDVQQH
DAZmUklFVFoxDTALBgNVBAoMBElzZW4xDTALBgNVBAsMBGlzZW4xCzAJBgNVBAMM
AkZSMSEwHwYJKoZIhvcNAQkBFhJoZ291aXJhbkBnbWFpbC5jb20wWTATBgcqhkjO
PQIBBggqhkjOPQMBBwNCAATLFVG6PI+0S8dBPjALP20oGINeyLkU5dzEZ7A0lJiF
4Edje/cYY2i9SwdVIAI/QkF/c0nUrwAygXMPCSezqCRpMAoGCCqGSM49BAMCA0cA
MEQCIG0vJT2w/8soJsWcmcvL43yCLAehvLk2beT6QeNO/k/AAiBd63vWhYj0xXNR
VMPTsSwSTWuz5XbI6MStIolfRrOQlw==
-----END CERTIFICATE-----
