Certificate:
    Data:
        Version: 1 (0x0)
        Serial Number: 11 (0xb)
        Signature Algorithm: ecdsa-with-SHA256
        Issuer: C=FR, ST=France, L=Toulon, O=Isen, OU=Cyber, CN=ACI
        Validity
            Not Before: May  1 20:16:06 2023 GMT
            Not After : Apr 30 23:59:59 2022 GMT
        Subject: C=FR, ST=PACA, L=TOULON , O=Isen, OU=Isen, CN=FR/emailAddress=cryptoISEN30@gmail.com
        Subject Public Key Info:
            Public Key Algorithm: id-ecPublicKey
                Public-Key: (256 bit)
                pub:
                    04:cb:98:82:8d:34:75:1c:2b:41:5d:2b:12:7d:cc:
                    b0:a9:38:b4:c7:3a:16:3f:73:ba:fb:3a:2f:f5:d4:
                    20:ae:b9:29:9e:68:c8:f8:b4:ed:9d:9a:83:08:fc:
                    ae:7d:be:e0:b8:18:00:17:cd:96:8e:dc:86:56:4d:
                    65:d2:3a:28:28
                ASN1 OID: prime256v1
                NIST CURVE: P-256
    Signature Algorithm: ecdsa-with-SHA256
    Signature Value:
        30:45:02:20:2c:22:ad:5a:a5:fb:96:31:54:52:57:36:4c:8e:
        a1:cd:a6:75:25:cb:30:69:a1:6f:97:98:5e:81:5f:97:12:b0:
        02:21:00:a9:9b:c0:22:c8:41:cb:da:32:d2:3d:7b:d4:a0:f8:
        b7:ee:89:24:26:67:ca:55:3d:c9:93:86:91:36:98:cc:ba
-----BEGIN CERTIFICATE-----
MIIBxTCCAWsCAQswCgYIKoZIzj0EAwIwXDELMAkGA1UEBhMCRlIxDzANBgNVBAgM
BkZyYW5jZTEPMA0GA1UEBwwGVG91bG9uMQ0wCwYDVQQKDARJc2VuMQ4wDAYDVQQL
DAVDeWJlcjEMMAoGA1UEAwwDQUNJMB4XDTIzMDUwMTIwMTYwNloXDTIyMDQzMDIz
NTk1OVowgYAxCzAJBgNVBAYTAkZSMQ0wCwYDVQQIDARQQUNBMRAwDgYDVQQHDAdU
T1VMT04gMQ0wCwYDVQQKDARJc2VuMQ0wCwYDVQQLDARJc2VuMQswCQYDVQQDDAJG
UjElMCMGCSqGSIb3DQEJARYWY3J5cHRvSVNFTjMwQGdtYWlsLmNvbTBZMBMGByqG
SM49AgEGCCqGSM49AwEHA0IABMuYgo00dRwrQV0rEn3MsKk4tMc6Fj9zuvs6L/XU
IK65KZ5oyPi07Z2agwj8rn2+4LgYABfNlo7chlZNZdI6KCgwCgYIKoZIzj0EAwID
SAAwRQIgLCKtWqX7ljFUUlc2TI6hzaZ1JcswaaFvl5hegV+XErACIQCpm8AiyEHL
2jLSPXvUoPi37okkJmfKVT3Jk4aRNpjMug==
-----END CERTIFICATE-----
